#include <math.h>
#include <stdio.h>
#include <stdlib.h>
#include <string.h>

int main()
{
    int e,i;
    double a[50],b[50],c[50];
	scanf("%d",&e);
	for(i=0;i<e;i++)
{
		scanf("%lf%lf%lf",&a[i],&b[i],&c[i]);
	}
	double delta,m,n,x1,x2;
	for (i=0;i<e;i++)
	{
	    delta=b[i]*b[i]-4*a[i]*c[i];
		m=-(b[i]/(2*a[i]));
		n=sqrt(fabs(delta))/(a[i]*2);	
		if(a[i]!=0)
	{
			
		if(delta==0)
		{
			printf("x1=x2=%.5lf\n",m);
		}
		else if(delta>0)
		{
			x1=m+n;
			x2=m-n;
			printf("x1=%.5lf;x2=%.5lf\n",x1,x2);
		}
		else 
		{
			printf("x1=%.5lf+%.5lfi;",m,n);
			printf("x2=%.5lf-%.5lfi\n",m,n);
		}
	}
	
		else if (a[i]==0)
		{
			double g;
			g=-c[i]/b[i];
			printf("x1=x2=%.5lf",g);
		}
}
	return 0;
}