; ModuleID = '27/1330.c'
source_filename = "27/1330.c"
target datalayout = "e-m:e-p270:32:32-p271:32:32-p272:64:64-i64:64-f80:128-n8:16:32:64-S128"
target triple = "x86_64-pc-linux-gnu"

@.str = private unnamed_addr constant [3 x i8] c"%d\00", align 1
@.str.1 = private unnamed_addr constant [10 x i8] c"%lf%lf%lf\00", align 1
@.str.2 = private unnamed_addr constant [13 x i8] c"x1=x2=%.5lf\0A\00", align 1
@.str.3 = private unnamed_addr constant [19 x i8] c"x1=%.5lf;x2=%.5lf\0A\00", align 1
@.str.4 = private unnamed_addr constant [17 x i8] c"x1=%.5lf+%.5lfi;\00", align 1
@.str.5 = private unnamed_addr constant [17 x i8] c"x2=%.5lf-%.5lfi\0A\00", align 1
@.str.6 = private unnamed_addr constant [12 x i8] c"x1=x2=%.5lf\00", align 1

; Function Attrs: noinline nounwind uwtable
define dso_local i32 @main() #0 {
  %1 = alloca i32, align 4
  %2 = alloca i32, align 4
  %3 = alloca i32, align 4
  %4 = alloca [50 x double], align 16
  %5 = alloca [50 x double], align 16
  %6 = alloca [50 x double], align 16
  %7 = alloca double, align 8
  %8 = alloca double, align 8
  %9 = alloca double, align 8
  %10 = alloca double, align 8
  %11 = alloca double, align 8
  %12 = alloca double, align 8
  store i32 0, i32* %1, align 4
  %13 = call i32 (i8*, ...) @__isoc99_scanf(i8* getelementptr inbounds ([3 x i8], [3 x i8]* @.str, i64 0, i64 0), i32* %2)
  store i32 0, i32* %3, align 4
  br label %14

14:                                               ; preds = %29, %0
  %15 = load i32, i32* %3, align 4
  %16 = load i32, i32* %2, align 4
  %17 = icmp slt i32 %15, %16
  br i1 %17, label %18, label %32

18:                                               ; preds = %14
  %19 = load i32, i32* %3, align 4
  %20 = sext i32 %19 to i64
  %21 = getelementptr inbounds [50 x double], [50 x double]* %4, i64 0, i64 %20
  %22 = load i32, i32* %3, align 4
  %23 = sext i32 %22 to i64
  %24 = getelementptr inbounds [50 x double], [50 x double]* %5, i64 0, i64 %23
  %25 = load i32, i32* %3, align 4
  %26 = sext i32 %25 to i64
  %27 = getelementptr inbounds [50 x double], [50 x double]* %6, i64 0, i64 %26
  %28 = call i32 (i8*, ...) @__isoc99_scanf(i8* getelementptr inbounds ([10 x i8], [10 x i8]* @.str.1, i64 0, i64 0), double* %21, double* %24, double* %27)
  br label %29

29:                                               ; preds = %18
  %30 = load i32, i32* %3, align 4
  %31 = add nsw i32 %30, 1
  store i32 %31, i32* %3, align 4
  br label %14

32:                                               ; preds = %14
  store i32 0, i32* %3, align 4
  br label %33

33:                                               ; preds = %132, %32
  %34 = load i32, i32* %3, align 4
  %35 = load i32, i32* %2, align 4
  %36 = icmp slt i32 %34, %35
  br i1 %36, label %37, label %135

37:                                               ; preds = %33
  %38 = load i32, i32* %3, align 4
  %39 = sext i32 %38 to i64
  %40 = getelementptr inbounds [50 x double], [50 x double]* %5, i64 0, i64 %39
  %41 = load double, double* %40, align 8
  %42 = load i32, i32* %3, align 4
  %43 = sext i32 %42 to i64
  %44 = getelementptr inbounds [50 x double], [50 x double]* %5, i64 0, i64 %43
  %45 = load double, double* %44, align 8
  %46 = fmul double %41, %45
  %47 = load i32, i32* %3, align 4
  %48 = sext i32 %47 to i64
  %49 = getelementptr inbounds [50 x double], [50 x double]* %4, i64 0, i64 %48
  %50 = load double, double* %49, align 8
  %51 = fmul double 4.000000e+00, %50
  %52 = load i32, i32* %3, align 4
  %53 = sext i32 %52 to i64
  %54 = getelementptr inbounds [50 x double], [50 x double]* %6, i64 0, i64 %53
  %55 = load double, double* %54, align 8
  %56 = fmul double %51, %55
  %57 = fsub double %46, %56
  store double %57, double* %7, align 8
  %58 = load i32, i32* %3, align 4
  %59 = sext i32 %58 to i64
  %60 = getelementptr inbounds [50 x double], [50 x double]* %5, i64 0, i64 %59
  %61 = load double, double* %60, align 8
  %62 = load i32, i32* %3, align 4
  %63 = sext i32 %62 to i64
  %64 = getelementptr inbounds [50 x double], [50 x double]* %4, i64 0, i64 %63
  %65 = load double, double* %64, align 8
  %66 = fmul double 2.000000e+00, %65
  %67 = fdiv double %61, %66
  %68 = fneg double %67
  store double %68, double* %8, align 8
  %69 = load double, double* %7, align 8
  %70 = call double @llvm.fabs.f64(double %69)
  %71 = call double @sqrt(double %70) #4
  %72 = load i32, i32* %3, align 4
  %73 = sext i32 %72 to i64
  %74 = getelementptr inbounds [50 x double], [50 x double]* %4, i64 0, i64 %73
  %75 = load double, double* %74, align 8
  %76 = fmul double %75, 2.000000e+00
  %77 = fdiv double %71, %76
  store double %77, double* %9, align 8
  %78 = load i32, i32* %3, align 4
  %79 = sext i32 %78 to i64
  %80 = getelementptr inbounds [50 x double], [50 x double]* %4, i64 0, i64 %79
  %81 = load double, double* %80, align 8
  %82 = fcmp une double %81, 0.000000e+00
  br i1 %82, label %83, label %111

83:                                               ; preds = %37
  %84 = load double, double* %7, align 8
  %85 = fcmp oeq double %84, 0.000000e+00
  br i1 %85, label %86, label %89

86:                                               ; preds = %83
  %87 = load double, double* %8, align 8
  %88 = call i32 (i8*, ...) @printf(i8* getelementptr inbounds ([13 x i8], [13 x i8]* @.str.2, i64 0, i64 0), double %87)
  br label %110

89:                                               ; preds = %83
  %90 = load double, double* %7, align 8
  %91 = fcmp ogt double %90, 0.000000e+00
  br i1 %91, label %92, label %102

92:                                               ; preds = %89
  %93 = load double, double* %8, align 8
  %94 = load double, double* %9, align 8
  %95 = fadd double %93, %94
  store double %95, double* %10, align 8
  %96 = load double, double* %8, align 8
  %97 = load double, double* %9, align 8
  %98 = fsub double %96, %97
  store double %98, double* %11, align 8
  %99 = load double, double* %10, align 8
  %100 = load double, double* %11, align 8
  %101 = call i32 (i8*, ...) @printf(i8* getelementptr inbounds ([19 x i8], [19 x i8]* @.str.3, i64 0, i64 0), double %99, double %100)
  br label %109

102:                                              ; preds = %89
  %103 = load double, double* %8, align 8
  %104 = load double, double* %9, align 8
  %105 = call i32 (i8*, ...) @printf(i8* getelementptr inbounds ([17 x i8], [17 x i8]* @.str.4, i64 0, i64 0), double %103, double %104)
  %106 = load double, double* %8, align 8
  %107 = load double, double* %9, align 8
  %108 = call i32 (i8*, ...) @printf(i8* getelementptr inbounds ([17 x i8], [17 x i8]* @.str.5, i64 0, i64 0), double %106, double %107)
  br label %109

109:                                              ; preds = %102, %92
  br label %110

110:                                              ; preds = %109, %86
  br label %131

111:                                              ; preds = %37
  %112 = load i32, i32* %3, align 4
  %113 = sext i32 %112 to i64
  %114 = getelementptr inbounds [50 x double], [50 x double]* %4, i64 0, i64 %113
  %115 = load double, double* %114, align 8
  %116 = fcmp oeq double %115, 0.000000e+00
  br i1 %116, label %117, label %130

117:                                              ; preds = %111
  %118 = load i32, i32* %3, align 4
  %119 = sext i32 %118 to i64
  %120 = getelementptr inbounds [50 x double], [50 x double]* %6, i64 0, i64 %119
  %121 = load double, double* %120, align 8
  %122 = fneg double %121
  %123 = load i32, i32* %3, align 4
  %124 = sext i32 %123 to i64
  %125 = getelementptr inbounds [50 x double], [50 x double]* %5, i64 0, i64 %124
  %126 = load double, double* %125, align 8
  %127 = fdiv double %122, %126
  store double %127, double* %12, align 8
  %128 = load double, double* %12, align 8
  %129 = call i32 (i8*, ...) @printf(i8* getelementptr inbounds ([12 x i8], [12 x i8]* @.str.6, i64 0, i64 0), double %128)
  br label %130

130:                                              ; preds = %117, %111
  br label %131

131:                                              ; preds = %130, %110
  br label %132

132:                                              ; preds = %131
  %133 = load i32, i32* %3, align 4
  %134 = add nsw i32 %133, 1
  store i32 %134, i32* %3, align 4
  br label %33

135:                                              ; preds = %33
  ret i32 0
}

declare dso_local i32 @__isoc99_scanf(i8*, ...) #1

; Function Attrs: nounwind
declare dso_local double @sqrt(double) #2

; Function Attrs: nounwind readnone speculatable willreturn
declare double @llvm.fabs.f64(double) #3

declare dso_local i32 @printf(i8*, ...) #1


!llvm.module.flags = !{!0}
!llvm.ident = !{!1}

!0 = !{i32 1, !"wchar_size", i32 4}
!1 = !{!"clang version 10.0.0-4ubuntu1 "}
